target datalayout = "e-m:e-p270:32:32-p271:32:32-p272:64:64-i64:64-i128:128-f80:128-n8:16:32:64-S128"
target triple = "x86_64-pc-linux-gnu"

%struct.Mini_Lut_t_ = type { i32, i32, i32, i32, ptr, ptr }

@.str.38 = private unnamed_addr constant [3 x i8] c"wb\00", align 1
@.str.39 = private unnamed_addr constant [36 x i8] c"Cannot open file for writing \22%s\22.\0A\00", align 1

; Function Attrs: nounwind uwtable
define internal i32 @Mini_LutWordNum(i32 noundef %0) #0 {
  %2 = alloca i32, align 4
  store i32 %0, ptr %2, align 4, !tbaa !12
  %3 = load i32, ptr %2, align 4, !tbaa !12
  %4 = icmp sgt i32 %3, 5
  br i1 %4, label %5, label %9

5:                                                ; preds = %1
  %6 = load i32, ptr %2, align 4, !tbaa !12
  %7 = sub nsw i32 %6, 5
  %8 = shl i32 1, %7
  br label %10

9:                                                ; preds = %1
  br label %10

10:                                               ; preds = %9, %5
  %11 = phi i32 [ %8, %5 ], [ 1, %9 ]
  ret i32 %11
}

; Function Attrs: nounwind uwtable
define internal void @Mini_LutStop(ptr noundef %0) #0 {
  %2 = alloca ptr, align 8
  store ptr %0, ptr %2, align 8, !tbaa !81
  %3 = load ptr, ptr %2, align 8, !tbaa !81
  %4 = getelementptr inbounds nuw %struct.Mini_Lut_t_, ptr %3, i32 0, i32 4
  %5 = load ptr, ptr %4, align 8, !tbaa !92
  %6 = icmp ne ptr %5, null
  br i1 %6, label %7, label %13

7:                                                ; preds = %1
  %8 = load ptr, ptr %2, align 8, !tbaa !81
  %9 = getelementptr inbounds nuw %struct.Mini_Lut_t_, ptr %8, i32 0, i32 4
  %10 = load ptr, ptr %9, align 8, !tbaa !92
  call void @free(ptr noundef %10) #13
  %11 = load ptr, ptr %2, align 8, !tbaa !81
  %12 = getelementptr inbounds nuw %struct.Mini_Lut_t_, ptr %11, i32 0, i32 4
  store ptr null, ptr %12, align 8, !tbaa !92
  br label %14

13:                                               ; preds = %1
  br label %14

14:                                               ; preds = %13, %7
  %15 = load ptr, ptr %2, align 8, !tbaa !81
  %16 = getelementptr inbounds nuw %struct.Mini_Lut_t_, ptr %15, i32 0, i32 5
  %17 = load ptr, ptr %16, align 8, !tbaa !93
  %18 = icmp ne ptr %17, null
  br i1 %18, label %19, label %25

19:                                               ; preds = %14
  %20 = load ptr, ptr %2, align 8, !tbaa !81
  %21 = getelementptr inbounds nuw %struct.Mini_Lut_t_, ptr %20, i32 0, i32 5
  %22 = load ptr, ptr %21, align 8, !tbaa !93
  call void @free(ptr noundef %22) #13
  %23 = load ptr, ptr %2, align 8, !tbaa !81
  %24 = getelementptr inbounds nuw %struct.Mini_Lut_t_, ptr %23, i32 0, i32 5
  store ptr null, ptr %24, align 8, !tbaa !93
  br label %26

25:                                               ; preds = %14
  br label %26

26:                                               ; preds = %25, %19
  %27 = load ptr, ptr %2, align 8, !tbaa !81
  %28 = icmp ne ptr %27, null
  br i1 %28, label %29, label %31

29:                                               ; preds = %26
  %30 = load ptr, ptr %2, align 8, !tbaa !81
  call void @free(ptr noundef %30) #13
  store ptr null, ptr %2, align 8, !tbaa !81
  br label %32

31:                                               ; preds = %26
  br label %32

32:                                               ; preds = %31, %29
  ret void
}

; Function Attrs: nounwind uwtable
define internal void @Mini_LutDump(ptr noundef %0, ptr noundef %1) #0 {
  %3 = alloca ptr, align 8
  %4 = alloca ptr, align 8
  %5 = alloca ptr, align 8
  %6 = alloca i32, align 4
  %7 = alloca i32, align 4
  store ptr %0, ptr %3, align 8, !tbaa !81
  store ptr %1, ptr %4, align 8, !tbaa !42
  call void @llvm.lifetime.start.p0(i64 8, ptr %5) #13
  call void @llvm.lifetime.start.p0(i64 4, ptr %6) #13
  %8 = load ptr, ptr %4, align 8, !tbaa !42
  %9 = call noalias ptr @fopen(ptr noundef %8, ptr noundef @.str.38)
  store ptr %9, ptr %5, align 8, !tbaa !69
  %10 = load ptr, ptr %5, align 8, !tbaa !69
  %11 = icmp eq ptr %10, null
  br i1 %11, label %12, label %15

12:                                               ; preds = %2
  %13 = load ptr, ptr %4, align 8, !tbaa !42
  %14 = call i32 (ptr, ...) @printf(ptr noundef @.str.39, ptr noundef %13)
  store i32 1, ptr %7, align 4
  br label %62

15:                                               ; preds = %2
  %16 = load ptr, ptr %3, align 8, !tbaa !81
  %17 = getelementptr inbounds nuw %struct.Mini_Lut_t_, ptr %16, i32 0, i32 1
  %18 = load ptr, ptr %5, align 8, !tbaa !69
  %19 = call i64 @fwrite(ptr noundef %17, i64 noundef 4, i64 noundef 1, ptr noundef %18)
  %20 = trunc i64 %19 to i32
  store i32 %20, ptr %6, align 4, !tbaa !12
  %21 = load ptr, ptr %3, align 8, !tbaa !81
  %22 = getelementptr inbounds nuw %struct.Mini_Lut_t_, ptr %21, i32 0, i32 2
  %23 = load ptr, ptr %5, align 8, !tbaa !69
  %24 = call i64 @fwrite(ptr noundef %22, i64 noundef 4, i64 noundef 1, ptr noundef %23)
  %25 = trunc i64 %24 to i32
  store i32 %25, ptr %6, align 4, !tbaa !12
  %26 = load ptr, ptr %3, align 8, !tbaa !81
  %27 = getelementptr inbounds nuw %struct.Mini_Lut_t_, ptr %26, i32 0, i32 3
  %28 = load ptr, ptr %5, align 8, !tbaa !69
  %29 = call i64 @fwrite(ptr noundef %27, i64 noundef 4, i64 noundef 1, ptr noundef %28)
  %30 = trunc i64 %29 to i32
  store i32 %30, ptr %6, align 4, !tbaa !12
  %31 = load ptr, ptr %3, align 8, !tbaa !81
  %32 = getelementptr inbounds nuw %struct.Mini_Lut_t_, ptr %31, i32 0, i32 4
  %33 = load ptr, ptr %32, align 8, !tbaa !92
  %34 = load ptr, ptr %3, align 8, !tbaa !81
  %35 = getelementptr inbounds nuw %struct.Mini_Lut_t_, ptr %34, i32 0, i32 1
  %36 = load i32, ptr %35, align 4, !tbaa !91
  %37 = load ptr, ptr %3, align 8, !tbaa !81
  %38 = getelementptr inbounds nuw %struct.Mini_Lut_t_, ptr %37, i32 0, i32 3
  %39 = load i32, ptr %38, align 4, !tbaa !87
  %40 = mul nsw i32 %36, %39
  %41 = sext i32 %40 to i64
  %42 = load ptr, ptr %5, align 8, !tbaa !69
  %43 = call i64 @fwrite(ptr noundef %33, i64 noundef 4, i64 noundef %41, ptr noundef %42)
  %44 = trunc i64 %43 to i32
  store i32 %44, ptr %6, align 4, !tbaa !12
  %45 = load ptr, ptr %3, align 8, !tbaa !81
  %46 = getelementptr inbounds nuw %struct.Mini_Lut_t_, ptr %45, i32 0, i32 5
  %47 = load ptr, ptr %46, align 8, !tbaa !93
  %48 = load ptr, ptr %3, align 8, !tbaa !81
  %49 = getelementptr inbounds nuw %struct.Mini_Lut_t_, ptr %48, i32 0, i32 1
  %50 = load i32, ptr %49, align 4, !tbaa !91
  %51 = load ptr, ptr %3, align 8, !tbaa !81
  %52 = getelementptr inbounds nuw %struct.Mini_Lut_t_, ptr %51, i32 0, i32 3
  %53 = load i32, ptr %52, align 4, !tbaa !87
  %54 = call i32 @Mini_LutWordNum(i32 noundef %53)
  %55 = mul nsw i32 %50, %54
  %56 = sext i32 %55 to i64
  %57 = load ptr, ptr %5, align 8, !tbaa !69
  %58 = call i64 @fwrite(ptr noundef %47, i64 noundef 4, i64 noundef %56, ptr noundef %57)
  %59 = trunc i64 %58 to i32
  store i32 %59, ptr %6, align 4, !tbaa !12
  %60 = load ptr, ptr %5, align 8, !tbaa !69
  %61 = call i32 @fclose(ptr noundef %60)
  store i32 0, ptr %7, align 4
  br label %62

62:                                               ; preds = %15, %12
  call void @llvm.lifetime.end.p0(i64 4, ptr %6) #13
  call void @llvm.lifetime.end.p0(i64 8, ptr %5) #13
  %63 = load i32, ptr %7, align 4
  switch i32 %63, label %65 [
    i32 0, label %64
    i32 1, label %64
  ]

64:                                               ; preds = %62, %62
  ret void

65:                                               ; preds = %62
  unreachable
}

; Function Attrs: nounwind uwtable
define void @Gia_ManWriteMiniLut(ptr noundef %0, ptr noundef %1) #0 {
  %3 = alloca ptr, align 8
  %4 = alloca ptr, align 8
  %5 = alloca ptr, align 8
  store ptr %0, ptr %3, align 8, !tbaa !3
  store ptr %1, ptr %4, align 8, !tbaa !42
  call void @llvm.lifetime.start.p0(i64 8, ptr %5) #13
  %6 = load ptr, ptr %3, align 8, !tbaa !3
  %7 = call ptr @Gia_ManToMiniLut(ptr noundef %6)
  store ptr %7, ptr %5, align 8, !tbaa !81
  %8 = load ptr, ptr %5, align 8, !tbaa !81
  %9 = load ptr, ptr %4, align 8, !tbaa !42
  call void @Mini_LutDump(ptr noundef %8, ptr noundef %9)
  %10 = load ptr, ptr %5, align 8, !tbaa !81
  call void @Mini_LutStop(ptr noundef %10)
  call void @llvm.lifetime.end.p0(i64 8, ptr %5) #13
  ret void
}