; Function Attrs: nounwind uwtable
define void @Gia_ManWriteMiniLut(ptr noundef %0, ptr noundef %1) local_unnamed_addr #2 {
  %3 = tail call ptr @Gia_ManToMiniLut(ptr noundef %0)
  %4 = tail call noalias ptr @fopen(ptr noundef %1, ptr noundef nonnull @.str.38)
  %5 = icmp eq ptr %4, null
  br i1 %5, label %6, label %8

6:                                                ; preds = %2
  %7 = tail call i32 (ptr, ...) @printf(ptr noundef nonnull dereferenceable(1) @.str.39, ptr noundef %1)
  %.phi.trans.insert = getelementptr inbounds nuw i8, ptr %3, i64 16
  %.pre = load ptr, ptr %.phi.trans.insert, align 8, !tbaa !74
  br label %Mini_LutDump.exit

8:                                                ; preds = %2
  %9 = getelementptr inbounds nuw i8, ptr %3, i64 4
  %10 = tail call i64 @fwrite(ptr noundef nonnull %9, i64 noundef 4, i64 noundef 1, ptr noundef nonnull %4)
  %11 = getelementptr inbounds nuw i8, ptr %3, i64 8
  %12 = tail call i64 @fwrite(ptr noundef nonnull %11, i64 noundef 4, i64 noundef 1, ptr noundef nonnull %4)
  %13 = getelementptr inbounds nuw i8, ptr %3, i64 12
  %14 = tail call i64 @fwrite(ptr noundef nonnull %13, i64 noundef 4, i64 noundef 1, ptr noundef nonnull %4)
  %15 = getelementptr inbounds nuw i8, ptr %3, i64 16
  %16 = load ptr, ptr %15, align 8, !tbaa !74
  %17 = load i32, ptr %9, align 4, !tbaa !73
  %18 = load i32, ptr %13, align 4, !tbaa !71
  %19 = mul nsw i32 %18, %17
  %20 = sext i32 %19 to i64
  %21 = tail call i64 @fwrite(ptr noundef %16, i64 noundef 4, i64 noundef %20, ptr noundef nonnull %4)
  %22 = getelementptr inbounds nuw i8, ptr %3, i64 24
  %23 = load ptr, ptr %22, align 8, !tbaa !75
  %24 = tail call i32 @llvm.smax.i32(i32 %18, i32 5)
  %25 = add nsw i32 %24, -5
  %26 = shl i32 %17, %25
  %27 = sext i32 %26 to i64
  %28 = tail call i64 @fwrite(ptr noundef %23, i64 noundef 4, i64 noundef %27, ptr noundef nonnull %4)
  %29 = tail call i32 @fclose(ptr noundef nonnull %4)
  br label %Mini_LutDump.exit

Mini_LutDump.exit:                                ; preds = %6, %8
  %30 = phi ptr [ %.pre, %6 ], [ %16, %8 ]
  %.not.i = icmp eq ptr %30, null
  br i1 %.not.i, label %32, label %31

31:                                               ; preds = %Mini_LutDump.exit
  tail call void @free(ptr noundef nonnull %30) #25
  br label %32

32:                                               ; preds = %31, %Mini_LutDump.exit
  %33 = getelementptr inbounds nuw i8, ptr %3, i64 24
  %34 = load ptr, ptr %33, align 8, !tbaa !75
  %.not10.i = icmp eq ptr %34, null
  br i1 %.not10.i, label %Mini_LutStop.exit, label %35

35:                                               ; preds = %32
  tail call void @free(ptr noundef nonnull %34) #25
  br label %Mini_LutStop.exit

Mini_LutStop.exit:                                ; preds = %32, %35
  tail call void @free(ptr noundef nonnull %3) #25
  ret void
}